target datalayout = "e-m:e-p270:32:32-p271:32:32-p272:64:64-i64:64-i128:128-f80:128-n8:16:32:64-S128"
target triple = "x86_64-pc-linux-gnu"

%struct.test_fixture = type { ptr, ptr, ptr, ptr, ptr, ptr, i32, ptr, ptr, ptr, i32, i32, i32 }
%struct.ossl_cmp_msg_st = type { ptr, ptr, ptr, ptr, ptr, ptr }

@libctx = internal global ptr null, align 8
@.str.14 = private unnamed_addr constant [35 x i8] c"../openssl/test/cmp_protect_test.c\00", align 1
@ip_PBM_f = internal global ptr null, align 8
@.str.46 = private unnamed_addr constant [31 x i8] c"test_cmp_calc_protection_pbmac\00", align 1
@.str.66 = private unnamed_addr constant [11 x i8] c"protection\00", align 1
@__const.test_cmp_calc_protection_pbmac.sec_insta = private unnamed_addr constant [5 x i8] c"insta", align 1
@.str.72 = private unnamed_addr constant [78 x i8] c"OSSL_CMP_CTX_set1_secretValue(fixture->cmp_ctx, sec_insta, sizeof(sec_insta))\00", align 1
@.str.73 = private unnamed_addr constant [45 x i8] c"fixture->msg = load_pkimsg(ip_PBM_f, libctx)\00", align 1
@.str.74 = private unnamed_addr constant [59 x i8] c"ASN1_STRING_cmp(protection, fixture->msg->protection) == 0\00", align 1

; Function Attrs: inlinehint nounwind uwtable
define internal ptr @ossl_check_X509_sk_type(ptr noundef %0) #3 {
  %2 = alloca ptr, align 8
  store ptr %0, ptr %2, align 8, !tbaa !54
  %3 = load ptr, ptr %2, align 8, !tbaa !54
  ret ptr %3
}

; Function Attrs: nounwind uwtable
define internal i32 @execute_calc_protection_pbmac_test(ptr noundef %0) #0 {
  %2 = alloca ptr, align 8
  %3 = alloca ptr, align 8
  %4 = alloca i32, align 4
  store ptr %0, ptr %2, align 8, !tbaa !19
  call void @llvm.lifetime.start.p0(i64 8, ptr %3) #5
  %5 = load ptr, ptr %2, align 8, !tbaa !19
  %6 = getelementptr inbounds nuw %struct.test_fixture, ptr %5, i32 0, i32 1
  %7 = load ptr, ptr %6, align 8, !tbaa !40
  %8 = load ptr, ptr %2, align 8, !tbaa !19
  %9 = getelementptr inbounds nuw %struct.test_fixture, ptr %8, i32 0, i32 2
  %10 = load ptr, ptr %9, align 8, !tbaa !23
  %11 = call ptr @ossl_cmp_calc_protection(ptr noundef %7, ptr noundef %10)
  store ptr %11, ptr %3, align 8, !tbaa !53
  call void @llvm.lifetime.start.p0(i64 4, ptr %4) #5
  %12 = load ptr, ptr %3, align 8, !tbaa !53
  %13 = call i32 @test_ptr(ptr noundef @.str.14, i32 noundef 94, ptr noundef @.str.66, ptr noundef %12)
  %14 = icmp ne i32 %13, 0
  br i1 %14, label %15, label %29

15:                                               ; preds = %1
  %16 = load ptr, ptr %3, align 8, !tbaa !53
  %17 = load ptr, ptr %2, align 8, !tbaa !19
  %18 = getelementptr inbounds nuw %struct.test_fixture, ptr %17, i32 0, i32 2
  %19 = load ptr, ptr %18, align 8, !tbaa !23
  %20 = getelementptr inbounds nuw %struct.ossl_cmp_msg_st, ptr %19, i32 0, i32 2
  %21 = load ptr, ptr %20, align 8, !tbaa !70
  %22 = call i32 @ASN1_STRING_cmp(ptr noundef %16, ptr noundef %21)
  %23 = icmp eq i32 %22, 0
  %24 = zext i1 %23 to i32
  %25 = icmp ne i32 %24, 0
  %26 = zext i1 %25 to i32
  %27 = call i32 @test_true(ptr noundef @.str.14, i32 noundef 96, ptr noundef @.str.74, i32 noundef %26)
  %28 = icmp ne i32 %27, 0
  br label %29

29:                                               ; preds = %15, %1
  %30 = phi i1 [ false, %1 ], [ %28, %15 ]
  %31 = zext i1 %30 to i32
  store i32 %31, ptr %4, align 4, !tbaa !21
  %32 = load ptr, ptr %3, align 8, !tbaa !53
  call void @ASN1_BIT_STRING_free(ptr noundef %32)
  %33 = load i32, ptr %4, align 4, !tbaa !21
  call void @llvm.lifetime.end.p0(i64 4, ptr %4) #5
  call void @llvm.lifetime.end.p0(i64 8, ptr %3) #5
  ret i32 %33
}

; Function Attrs: nounwind uwtable
define internal void @tear_down(ptr noundef %0) #0 {
  %2 = alloca ptr, align 8
  store ptr %0, ptr %2, align 8, !tbaa !19
  %3 = load ptr, ptr %2, align 8, !tbaa !19
  %4 = icmp ne ptr %3, null
  br i1 %4, label %5, label %27

5:                                                ; preds = %1
  %6 = load ptr, ptr %2, align 8, !tbaa !19
  %7 = getelementptr inbounds nuw %struct.test_fixture, ptr %6, i32 0, i32 1
  %8 = load ptr, ptr %7, align 8, !tbaa !40
  call void @OSSL_CMP_CTX_free(ptr noundef %8)
  %9 = load ptr, ptr %2, align 8, !tbaa !19
  %10 = getelementptr inbounds nuw %struct.test_fixture, ptr %9, i32 0, i32 2
  %11 = load ptr, ptr %10, align 8, !tbaa !23
  call void @OSSL_CMP_MSG_free(ptr noundef %11)
  %12 = load ptr, ptr %2, align 8, !tbaa !19
  %13 = getelementptr inbounds nuw %struct.test_fixture, ptr %12, i32 0, i32 3
  %14 = load ptr, ptr %13, align 8, !tbaa !51
  call void @OSSL_CMP_PKISI_free(ptr noundef %14)
  %15 = load ptr, ptr %2, align 8, !tbaa !19
  %16 = getelementptr inbounds nuw %struct.test_fixture, ptr %15, i32 0, i32 5
  %17 = load ptr, ptr %16, align 8, !tbaa !52
  call void @CRYPTO_free(ptr noundef %17, ptr noundef @.str.14, i32 noundef 46)
  %18 = load ptr, ptr %2, align 8, !tbaa !19
  %19 = getelementptr inbounds nuw %struct.test_fixture, ptr %18, i32 0, i32 8
  %20 = load ptr, ptr %19, align 8, !tbaa !47
  %21 = call ptr @ossl_check_X509_sk_type(ptr noundef %20)
  call void @OPENSSL_sk_free(ptr noundef %21)
  %22 = load ptr, ptr %2, align 8, !tbaa !19
  %23 = getelementptr inbounds nuw %struct.test_fixture, ptr %22, i32 0, i32 9
  %24 = load ptr, ptr %23, align 8, !tbaa !48
  %25 = call ptr @ossl_check_X509_sk_type(ptr noundef %24)
  call void @OPENSSL_sk_free(ptr noundef %25)
  %26 = load ptr, ptr %2, align 8, !tbaa !19
  call void @CRYPTO_free(ptr noundef %26, ptr noundef @.str.14, i32 noundef 50)
  br label %27

27:                                               ; preds = %5, %1
  ret void
}

; Function Attrs: nounwind uwtable
define internal i32 @test_cmp_calc_protection_pbmac() #0 {
  %1 = alloca i32, align 4
  %2 = alloca [5 x i8], align 1
  %3 = alloca ptr, align 8
  %4 = alloca i32, align 4
  %5 = alloca i32, align 4
  call void @llvm.lifetime.start.p0(i64 5, ptr %2) #5
  call void @llvm.memcpy.p0.p0.i64(ptr align 1 %2, ptr align 1 @__const.test_cmp_calc_protection_pbmac.sec_insta, i64 5, i1 false)
  call void @llvm.lifetime.start.p0(i64 8, ptr %3) #5
  %6 = call ptr @set_up(ptr noundef @.str.46)
  store ptr %6, ptr %3, align 8, !tbaa !19
  call void @llvm.lifetime.start.p0(i64 4, ptr %4) #5
  store i32 0, ptr %4, align 4, !tbaa !21
  %7 = load ptr, ptr %3, align 8, !tbaa !19
  %8 = icmp eq ptr %7, null
  br i1 %8, label %9, label %10

9:                                                ; preds = %0
  store i32 0, ptr %1, align 4
  store i32 1, ptr %5, align 4
  br label %39

10:                                               ; preds = %0
  %11 = load ptr, ptr %3, align 8, !tbaa !19
  %12 = getelementptr inbounds nuw %struct.test_fixture, ptr %11, i32 0, i32 1
  %13 = load ptr, ptr %12, align 8, !tbaa !40
  %14 = getelementptr inbounds [5 x i8], ptr %2, i64 0, i64 0
  %15 = call i32 @OSSL_CMP_CTX_set1_secretValue(ptr noundef %13, ptr noundef %14, i32 noundef 5)
  %16 = icmp ne i32 %15, 0
  %17 = zext i1 %16 to i32
  %18 = call i32 @test_true(ptr noundef @.str.14, i32 noundef 182, ptr noundef @.str.72, i32 noundef %17)
  %19 = icmp ne i32 %18, 0
  br i1 %19, label %20, label %28

20:                                               ; preds = %10
  %21 = load ptr, ptr @ip_PBM_f, align 8, !tbaa !17
  %22 = load ptr, ptr @libctx, align 8, !tbaa !15
  %23 = call ptr @load_pkimsg(ptr noundef %21, ptr noundef %22)
  %24 = load ptr, ptr %3, align 8, !tbaa !19
  %25 = getelementptr inbounds nuw %struct.test_fixture, ptr %24, i32 0, i32 2
  store ptr %23, ptr %25, align 8, !tbaa !23
  %26 = call i32 @test_ptr(ptr noundef @.str.14, i32 noundef 183, ptr noundef @.str.73, ptr noundef %23)
  %27 = icmp ne i32 %26, 0
  br i1 %27, label %30, label %28

28:                                               ; preds = %20, %10
  %29 = load ptr, ptr %3, align 8, !tbaa !19
  call void @tear_down(ptr noundef %29)
  store ptr null, ptr %3, align 8, !tbaa !19
  br label %30

30:                                               ; preds = %28, %20
  %31 = load ptr, ptr %3, align 8, !tbaa !19
  %32 = icmp ne ptr %31, null
  br i1 %32, label %33, label %37

33:                                               ; preds = %30
  %34 = load ptr, ptr %3, align 8, !tbaa !19
  %35 = call i32 @execute_calc_protection_pbmac_test(ptr noundef %34)
  store i32 %35, ptr %4, align 4, !tbaa !21
  %36 = load ptr, ptr %3, align 8, !tbaa !19
  call void @tear_down(ptr noundef %36)
  br label %37

37:                                               ; preds = %33, %30
  %38 = load i32, ptr %4, align 4, !tbaa !21
  store i32 %38, ptr %1, align 4
  store i32 1, ptr %5, align 4
  br label %39

39:                                               ; preds = %37, %9
  call void @llvm.lifetime.end.p0(i64 4, ptr %4) #5
  call void @llvm.lifetime.end.p0(i64 8, ptr %3) #5
  call void @llvm.lifetime.end.p0(i64 5, ptr %2) #5
  %40 = load i32, ptr %1, align 4
  ret i32 %40
}