; Function Attrs: nounwind uwtable
define internal range(i32 0, 2) i32 @test_cmp_calc_protection_pbmac() #0 {
  %1 = alloca [5 x i8], align 1
  call void @llvm.lifetime.start.p0(i64 5, ptr nonnull %1) #5
  call void @llvm.memcpy.p0.p0.i64(ptr noundef nonnull align 1 dereferenceable(5) %1, ptr noundef nonnull align 1 dereferenceable(5) @__const.test_cmp_calc_protection_pbmac.sec_insta, i64 5, i1 false)
  %2 = tail call fastcc ptr @set_up(ptr noundef nonnull @.str.46)
  %3 = icmp eq ptr %2, null
  br i1 %3, label %44, label %4

4:                                                ; preds = %0
  %5 = getelementptr inbounds nuw i8, ptr %2, i64 8
  %6 = load ptr, ptr %5, align 8, !tbaa !36
  %7 = call i32 @OSSL_CMP_CTX_set1_secretValue(ptr noundef %6, ptr noundef nonnull %1, i32 noundef 5) #5
  %8 = icmp ne i32 %7, 0
  %9 = zext i1 %8 to i32
  %10 = call i32 @test_true(ptr noundef nonnull @.str.14, i32 noundef 182, ptr noundef nonnull @.str.72, i32 noundef %9) #5
  %.not = icmp eq i32 %10, 0
  br i1 %.not, label %.thread, label %11

11:                                               ; preds = %4
  %12 = load ptr, ptr @ip_PBM_f, align 8, !tbaa !17
  %13 = load ptr, ptr @libctx, align 8, !tbaa !15
  %14 = call ptr @load_pkimsg(ptr noundef %12, ptr noundef %13) #5
  %15 = getelementptr inbounds nuw i8, ptr %2, i64 16
  store ptr %14, ptr %15, align 8, !tbaa !19
  %16 = call i32 @test_ptr(ptr noundef nonnull @.str.14, i32 noundef 183, ptr noundef nonnull @.str.73, ptr noundef %14) #5
  %.not11 = icmp eq i32 %16, 0
  br i1 %.not11, label %.thread, label %19

.thread:                                          ; preds = %4, %11
  %17 = load ptr, ptr %5, align 8, !tbaa !36
  call void @OSSL_CMP_CTX_free(ptr noundef %17) #5
  %18 = getelementptr inbounds nuw i8, ptr %2, i64 16
  br label %.sink.split

19:                                               ; preds = %11
  %20 = load ptr, ptr %5, align 8, !tbaa !36
  %21 = load ptr, ptr %15, align 8, !tbaa !19
  %22 = call ptr @ossl_cmp_calc_protection(ptr noundef %20, ptr noundef %21) #5
  %23 = call i32 @test_ptr(ptr noundef nonnull @.str.14, i32 noundef 94, ptr noundef nonnull @.str.66, ptr noundef %22) #5
  %.not.i13 = icmp eq i32 %23, 0
  br i1 %.not.i13, label %tear_down.exit15, label %24

24:                                               ; preds = %19
  %25 = load ptr, ptr %15, align 8, !tbaa !19
  %26 = getelementptr inbounds nuw i8, ptr %25, i64 16
  %27 = load ptr, ptr %26, align 8, !tbaa !42
  %28 = call i32 @ASN1_STRING_cmp(ptr noundef %22, ptr noundef %27) #5
  %29 = icmp eq i32 %28, 0
  %30 = zext i1 %29 to i32
  %31 = call i32 @test_true(ptr noundef nonnull @.str.14, i32 noundef 96, ptr noundef nonnull @.str.74, i32 noundef %30) #5
  %32 = icmp ne i32 %31, 0
  %33 = zext i1 %32 to i32
  br label %tear_down.exit15

tear_down.exit15:                                 ; preds = %19, %24
  %34 = phi i32 [ 0, %19 ], [ %33, %24 ]
  call void @ASN1_BIT_STRING_free(ptr noundef %22) #5
  %35 = load ptr, ptr %5, align 8, !tbaa !36
  call void @OSSL_CMP_CTX_free(ptr noundef %35) #5
  br label %.sink.split

.sink.split:                                      ; preds = %tear_down.exit15, %.thread
  %.sink.in = phi ptr [ %18, %.thread ], [ %15, %tear_down.exit15 ]
  %.09.ph = phi i32 [ 0, %.thread ], [ %34, %tear_down.exit15 ]
  %.sink = load ptr, ptr %.sink.in, align 8, !tbaa !19
  call void @OSSL_CMP_MSG_free(ptr noundef %.sink) #5
  %36 = getelementptr inbounds nuw i8, ptr %2, i64 24
  %37 = load ptr, ptr %36, align 8, !tbaa !37
  call void @OSSL_CMP_PKISI_free(ptr noundef %37) #5
  %38 = getelementptr inbounds nuw i8, ptr %2, i64 40
  %39 = load ptr, ptr %38, align 8, !tbaa !38
  call void @CRYPTO_free(ptr noundef %39, ptr noundef nonnull @.str.14, i32 noundef 46) #5
  %40 = getelementptr inbounds nuw i8, ptr %2, i64 64
  %41 = load ptr, ptr %40, align 8, !tbaa !39
  call void @OPENSSL_sk_free(ptr noundef %41) #5
  %42 = getelementptr inbounds nuw i8, ptr %2, i64 72
  %43 = load ptr, ptr %42, align 8, !tbaa !40
  call void @OPENSSL_sk_free(ptr noundef %43) #5
  call void @CRYPTO_free(ptr noundef nonnull %2, ptr noundef nonnull @.str.14, i32 noundef 50) #5
  br label %44

44:                                               ; preds = %.sink.split, %0
  %.09 = phi i32 [ 0, %0 ], [ %.09.ph, %.sink.split ]
  call void @llvm.lifetime.end.p0(i64 5, ptr nonnull %1) #5
  ret i32 %.09
}